target datalayout = "e-m:e-p270:32:32-p271:32:32-p272:64:64-i64:64-i128:128-f80:128-n8:16:32:64-S128"
target triple = "x86_64-pc-linux-gnu"

%struct.AVFilterContext = type { ptr, ptr, ptr, ptr, ptr, i32, ptr, ptr, i32, ptr, ptr, i32, i32, ptr, ptr, ptr, ptr, i32, ptr, i32, i32 }
%struct.AVFilterPad = type { ptr, i32, i32, %union.anon, ptr, ptr, ptr }
%union.anon = type { ptr }
%struct.FFFilterContext = type { %struct.AVFilterContext, ptr, i32, i32, ptr, ptr, ptr }
%struct.FilterLinkInternal = type { %struct.FilterLink, ptr, %struct.FFFrameQueue, i32, i32, i64, i32, i32, i32, i32 }
%struct.FilterLink = type { %struct.AVFilterLink, ptr, i64, i64, i32, i32, i64, i64, i64, i64, %struct.AVRational, ptr }
%struct.AVFilterLink = type { ptr, ptr, ptr, ptr, i32, i32, i32, i32, %struct.AVRational, i32, i32, i32, %struct.AVChannelLayout, %struct.AVRational, ptr, i32, %struct.AVFilterFormatsConfig, %struct.AVFilterFormatsConfig }
%struct.AVChannelLayout = type { i32, i32, %union.anon.0, ptr }
%union.anon.0 = type { i64 }
%struct.AVFilterFormatsConfig = type { ptr, ptr, ptr, ptr, ptr }
%struct.AVRational = type { i32, i32 }
%struct.FFFrameQueue = type { ptr, i64, i64, i64, %struct.FFFrameBucket, i64, i64, i64, i64, i32 }
%struct.FFFrameBucket = type { ptr }
%struct.FFFilterGraph = type { %struct.AVFilterGraph, ptr, i32, i32, ptr, ptr, %struct.FFFrameQueueGlobal }
%struct.AVFilterGraph = type { ptr, ptr, i32, ptr, i32, i32, ptr, ptr, ptr }
%struct.FFFrameQueueGlobal = type { i8 }

@.str = private unnamed_addr constant [30 x i8] c"Assertion %s failed at %s:%d\0A\00", align 1
@.str.1 = private unnamed_addr constant [11 x i8] c"src->graph\00", align 1
@.str.2 = private unnamed_addr constant [23 x i8] c"libavfilter/avfilter.c\00", align 1
@.str.3 = private unnamed_addr constant [11 x i8] c"dst->graph\00", align 1
@.str.4 = private unnamed_addr constant [25 x i8] c"src->graph == dst->graph\00", align 1
@.str.5 = private unnamed_addr constant [45 x i8] c"Filters must be initialized before linking.\0A\00", align 1
@.str.6 = private unnamed_addr constant [102 x i8] c"Media type mismatch between the '%s' filter output pad %d (%s) and the '%s' filter input pad %d (%s)\0A\00", align 1
@.str.7 = private unnamed_addr constant [2 x i8] c"?\00", align 1

; Function Attrs: inlinehint nounwind uwtable
define internal ptr @fffiltergraph(ptr noundef %0) #4 {
  %2 = alloca ptr, align 8
  store ptr %0, ptr %2, align 8, !tbaa !73
  %3 = load ptr, ptr %2, align 8, !tbaa !73
  ret ptr %3
}

; Function Attrs: inlinehint nounwind uwtable
define internal ptr @av_x_if_null(ptr noundef %0, ptr noundef %1) #4 {
  %3 = alloca ptr, align 8
  %4 = alloca ptr, align 8
  store ptr %0, ptr %3, align 8, !tbaa !72
  store ptr %1, ptr %4, align 8, !tbaa !72
  %5 = load ptr, ptr %3, align 8, !tbaa !72
  %6 = icmp ne ptr %5, null
  br i1 %6, label %7, label %9

7:                                                ; preds = %2
  %8 = load ptr, ptr %3, align 8, !tbaa !72
  br label %11

9:                                                ; preds = %2
  %10 = load ptr, ptr %4, align 8, !tbaa !72
  br label %11

11:                                               ; preds = %9, %7
  %12 = phi ptr [ %8, %7 ], [ %10, %9 ]
  %13 = ptrtoint ptr %12 to i64
  %14 = inttoptr i64 %13 to ptr
  ret ptr %14
}

; Function Attrs: inlinehint nounwind uwtable
define internal ptr @fffilterctx(ptr noundef %0) #4 {
  %2 = alloca ptr, align 8
  store ptr %0, ptr %2, align 8, !tbaa !4
  %3 = load ptr, ptr %2, align 8, !tbaa !4
  ret ptr %3
}

; Function Attrs: nounwind uwtable
define i32 @avfilter_link(ptr noundef %0, i32 noundef %1, ptr noundef %2, i32 noundef %3) #0 {
  %5 = alloca i32, align 4
  %6 = alloca ptr, align 8
  %7 = alloca i32, align 4
  %8 = alloca ptr, align 8
  %9 = alloca i32, align 4
  %10 = alloca ptr, align 8
  %11 = alloca ptr, align 8
  %12 = alloca i32, align 4
  store ptr %0, ptr %6, align 8, !tbaa !4
  store i32 %1, ptr %7, align 4, !tbaa !19
  store ptr %2, ptr %8, align 8, !tbaa !4
  store i32 %3, ptr %9, align 4, !tbaa !19
  call void @llvm.lifetime.start.p0(i64 8, ptr %10) #11
  call void @llvm.lifetime.start.p0(i64 8, ptr %11) #11
  br label %13

13:                                               ; preds = %4
  %14 = load ptr, ptr %6, align 8, !tbaa !4
  %15 = getelementptr inbounds nuw %struct.AVFilterContext, ptr %14, i32 0, i32 10
  %16 = load ptr, ptr %15, align 8, !tbaa !28
  %17 = icmp ne ptr %16, null
  br i1 %17, label %19, label %18

18:                                               ; preds = %13
  call void (ptr, i32, ptr, ...) @av_log(ptr noundef null, i32 noundef 0, ptr noundef @.str, ptr noundef @.str.1, ptr noundef @.str.2, i32 noundef 155)
  call void @abort() #12
  unreachable

19:                                               ; preds = %13
  br label %20

20:                                               ; preds = %19
  br label %21

21:                                               ; preds = %20
  br label %22

22:                                               ; preds = %21
  %23 = load ptr, ptr %8, align 8, !tbaa !4
  %24 = getelementptr inbounds nuw %struct.AVFilterContext, ptr %23, i32 0, i32 10
  %25 = load ptr, ptr %24, align 8, !tbaa !28
  %26 = icmp ne ptr %25, null
  br i1 %26, label %28, label %27

27:                                               ; preds = %22
  call void (ptr, i32, ptr, ...) @av_log(ptr noundef null, i32 noundef 0, ptr noundef @.str, ptr noundef @.str.3, ptr noundef @.str.2, i32 noundef 156)
  call void @abort() #12
  unreachable

28:                                               ; preds = %22
  br label %29

29:                                               ; preds = %28
  br label %30

30:                                               ; preds = %29
  br label %31

31:                                               ; preds = %30
  %32 = load ptr, ptr %6, align 8, !tbaa !4
  %33 = getelementptr inbounds nuw %struct.AVFilterContext, ptr %32, i32 0, i32 10
  %34 = load ptr, ptr %33, align 8, !tbaa !28
  %35 = load ptr, ptr %8, align 8, !tbaa !4
  %36 = getelementptr inbounds nuw %struct.AVFilterContext, ptr %35, i32 0, i32 10
  %37 = load ptr, ptr %36, align 8, !tbaa !28
  %38 = icmp eq ptr %34, %37
  br i1 %38, label %40, label %39

39:                                               ; preds = %31
  call void (ptr, i32, ptr, ...) @av_log(ptr noundef null, i32 noundef 0, ptr noundef @.str, ptr noundef @.str.4, ptr noundef @.str.2, i32 noundef 157)
  call void @abort() #12
  unreachable

40:                                               ; preds = %31
  br label %41

41:                                               ; preds = %40
  br label %42

42:                                               ; preds = %41
  %43 = load ptr, ptr %6, align 8, !tbaa !4
  %44 = getelementptr inbounds nuw %struct.AVFilterContext, ptr %43, i32 0, i32 8
  %45 = load i32, ptr %44, align 8, !tbaa !36
  %46 = load i32, ptr %7, align 4, !tbaa !19
  %47 = icmp ule i32 %45, %46
  br i1 %47, label %72, label %48

48:                                               ; preds = %42
  %49 = load ptr, ptr %8, align 8, !tbaa !4
  %50 = getelementptr inbounds nuw %struct.AVFilterContext, ptr %49, i32 0, i32 5
  %51 = load i32, ptr %50, align 8, !tbaa !37
  %52 = load i32, ptr %9, align 4, !tbaa !19
  %53 = icmp ule i32 %51, %52
  br i1 %53, label %72, label %54

54:                                               ; preds = %48
  %55 = load ptr, ptr %6, align 8, !tbaa !4
  %56 = getelementptr inbounds nuw %struct.AVFilterContext, ptr %55, i32 0, i32 7
  %57 = load ptr, ptr %56, align 8, !tbaa !38
  %58 = load i32, ptr %7, align 4, !tbaa !19
  %59 = zext i32 %58 to i64
  %60 = getelementptr inbounds nuw ptr, ptr %57, i64 %59
  %61 = load ptr, ptr %60, align 8, !tbaa !26
  %62 = icmp ne ptr %61, null
  br i1 %62, label %72, label %63

63:                                               ; preds = %54
  %64 = load ptr, ptr %8, align 8, !tbaa !4
  %65 = getelementptr inbounds nuw %struct.AVFilterContext, ptr %64, i32 0, i32 4
  %66 = load ptr, ptr %65, align 8, !tbaa !39
  %67 = load i32, ptr %9, align 4, !tbaa !19
  %68 = zext i32 %67 to i64
  %69 = getelementptr inbounds nuw ptr, ptr %66, i64 %68
  %70 = load ptr, ptr %69, align 8, !tbaa !26
  %71 = icmp ne ptr %70, null
  br i1 %71, label %72, label %73

72:                                               ; preds = %63, %54, %48, %42
  store i32 -22, ptr %5, align 4
  store i32 1, ptr %12, align 4
  br label %211

73:                                               ; preds = %63
  %74 = load ptr, ptr %6, align 8, !tbaa !4
  %75 = call ptr @fffilterctx(ptr noundef %74)
  %76 = getelementptr inbounds nuw %struct.FFFilterContext, ptr %75, i32 0, i32 2
  %77 = load i32, ptr %76, align 8, !tbaa !40
  %78 = and i32 %77, 1
  %79 = icmp ne i32 %78, 0
  br i1 %79, label %80, label %87

80:                                               ; preds = %73
  %81 = load ptr, ptr %8, align 8, !tbaa !4
  %82 = call ptr @fffilterctx(ptr noundef %81)
  %83 = getelementptr inbounds nuw %struct.FFFilterContext, ptr %82, i32 0, i32 2
  %84 = load i32, ptr %83, align 8, !tbaa !40
  %85 = and i32 %84, 1
  %86 = icmp ne i32 %85, 0
  br i1 %86, label %89, label %87

87:                                               ; preds = %80, %73
  %88 = load ptr, ptr %6, align 8, !tbaa !4
  call void (ptr, i32, ptr, ...) @av_log(ptr noundef %88, i32 noundef 16, ptr noundef @.str.5)
  store i32 -22, ptr %5, align 4
  store i32 1, ptr %12, align 4
  br label %211

89:                                               ; preds = %80
  %90 = load ptr, ptr %6, align 8, !tbaa !4
  %91 = getelementptr inbounds nuw %struct.AVFilterContext, ptr %90, i32 0, i32 6
  %92 = load ptr, ptr %91, align 8, !tbaa !43
  %93 = load i32, ptr %7, align 4, !tbaa !19
  %94 = zext i32 %93 to i64
  %95 = getelementptr inbounds nuw %struct.AVFilterPad, ptr %92, i64 %94
  %96 = getelementptr inbounds nuw %struct.AVFilterPad, ptr %95, i32 0, i32 1
  %97 = load i32, ptr %96, align 8, !tbaa !44
  %98 = load ptr, ptr %8, align 8, !tbaa !4
  %99 = getelementptr inbounds nuw %struct.AVFilterContext, ptr %98, i32 0, i32 3
  %100 = load ptr, ptr %99, align 8, !tbaa !45
  %101 = load i32, ptr %9, align 4, !tbaa !19
  %102 = zext i32 %101 to i64
  %103 = getelementptr inbounds nuw %struct.AVFilterPad, ptr %100, i64 %102
  %104 = getelementptr inbounds nuw %struct.AVFilterPad, ptr %103, i32 0, i32 1
  %105 = load i32, ptr %104, align 8, !tbaa !44
  %106 = icmp ne i32 %97, %105
  br i1 %106, label %107, label %137

107:                                              ; preds = %89
  %108 = load ptr, ptr %6, align 8, !tbaa !4
  %109 = load ptr, ptr %6, align 8, !tbaa !4
  %110 = getelementptr inbounds nuw %struct.AVFilterContext, ptr %109, i32 0, i32 2
  %111 = load ptr, ptr %110, align 8, !tbaa !46
  %112 = load i32, ptr %7, align 4, !tbaa !19
  %113 = load ptr, ptr %6, align 8, !tbaa !4
  %114 = getelementptr inbounds nuw %struct.AVFilterContext, ptr %113, i32 0, i32 6
  %115 = load ptr, ptr %114, align 8, !tbaa !43
  %116 = load i32, ptr %7, align 4, !tbaa !19
  %117 = zext i32 %116 to i64
  %118 = getelementptr inbounds nuw %struct.AVFilterPad, ptr %115, i64 %117
  %119 = getelementptr inbounds nuw %struct.AVFilterPad, ptr %118, i32 0, i32 1
  %120 = load i32, ptr %119, align 8, !tbaa !44
  %121 = call ptr @av_get_media_type_string(i32 noundef %120)
  %122 = call ptr @av_x_if_null(ptr noundef %121, ptr noundef @.str.7)
  %123 = load ptr, ptr %8, align 8, !tbaa !4
  %124 = getelementptr inbounds nuw %struct.AVFilterContext, ptr %123, i32 0, i32 2
  %125 = load ptr, ptr %124, align 8, !tbaa !46
  %126 = load i32, ptr %9, align 4, !tbaa !19
  %127 = load ptr, ptr %8, align 8, !tbaa !4
  %128 = getelementptr inbounds nuw %struct.AVFilterContext, ptr %127, i32 0, i32 3
  %129 = load ptr, ptr %128, align 8, !tbaa !45
  %130 = load i32, ptr %9, align 4, !tbaa !19
  %131 = zext i32 %130 to i64
  %132 = getelementptr inbounds nuw %struct.AVFilterPad, ptr %129, i64 %131
  %133 = getelementptr inbounds nuw %struct.AVFilterPad, ptr %132, i32 0, i32 1
  %134 = load i32, ptr %133, align 8, !tbaa !44
  %135 = call ptr @av_get_media_type_string(i32 noundef %134)
  %136 = call ptr @av_x_if_null(ptr noundef %135, ptr noundef @.str.7)
  call void (ptr, i32, ptr, ...) @av_log(ptr noundef %108, i32 noundef 16, ptr noundef @.str.6, ptr noundef %111, i32 noundef %112, ptr noundef %122, ptr noundef %125, i32 noundef %126, ptr noundef %136)
  store i32 -22, ptr %5, align 4
  store i32 1, ptr %12, align 4
  br label %211

137:                                              ; preds = %89
  %138 = call noalias ptr @av_mallocz(i64 noundef 400)
  store ptr %138, ptr %10, align 8, !tbaa !47
  %139 = load ptr, ptr %10, align 8, !tbaa !47
  %140 = icmp ne ptr %139, null
  br i1 %140, label %142, label %141

141:                                              ; preds = %137
  store i32 -12, ptr %5, align 4
  store i32 1, ptr %12, align 4
  br label %211

142:                                              ; preds = %137
  %143 = load ptr, ptr %10, align 8, !tbaa !47
  %144 = getelementptr inbounds nuw %struct.FilterLinkInternal, ptr %143, i32 0, i32 0
  %145 = getelementptr inbounds nuw %struct.FilterLink, ptr %144, i32 0, i32 0
  store ptr %145, ptr %11, align 8, !tbaa !26
  %146 = load ptr, ptr %11, align 8, !tbaa !26
  %147 = load ptr, ptr %8, align 8, !tbaa !4
  %148 = getelementptr inbounds nuw %struct.AVFilterContext, ptr %147, i32 0, i32 4
  %149 = load ptr, ptr %148, align 8, !tbaa !39
  %150 = load i32, ptr %9, align 4, !tbaa !19
  %151 = zext i32 %150 to i64
  %152 = getelementptr inbounds nuw ptr, ptr %149, i64 %151
  store ptr %146, ptr %152, align 8, !tbaa !26
  %153 = load ptr, ptr %6, align 8, !tbaa !4
  %154 = getelementptr inbounds nuw %struct.AVFilterContext, ptr %153, i32 0, i32 7
  %155 = load ptr, ptr %154, align 8, !tbaa !38
  %156 = load i32, ptr %7, align 4, !tbaa !19
  %157 = zext i32 %156 to i64
  %158 = getelementptr inbounds nuw ptr, ptr %155, i64 %157
  store ptr %146, ptr %158, align 8, !tbaa !26
  %159 = load ptr, ptr %6, align 8, !tbaa !4
  %160 = load ptr, ptr %11, align 8, !tbaa !26
  %161 = getelementptr inbounds nuw %struct.AVFilterLink, ptr %160, i32 0, i32 0
  store ptr %159, ptr %161, align 8, !tbaa !49
  %162 = load ptr, ptr %8, align 8, !tbaa !4
  %163 = load ptr, ptr %11, align 8, !tbaa !26
  %164 = getelementptr inbounds nuw %struct.AVFilterLink, ptr %163, i32 0, i32 2
  store ptr %162, ptr %164, align 8, !tbaa !57
  %165 = load ptr, ptr %6, align 8, !tbaa !4
  %166 = getelementptr inbounds nuw %struct.AVFilterContext, ptr %165, i32 0, i32 6
  %167 = load ptr, ptr %166, align 8, !tbaa !43
  %168 = load i32, ptr %7, align 4, !tbaa !19
  %169 = zext i32 %168 to i64
  %170 = getelementptr inbounds nuw %struct.AVFilterPad, ptr %167, i64 %169
  %171 = load ptr, ptr %11, align 8, !tbaa !26
  %172 = getelementptr inbounds nuw %struct.AVFilterLink, ptr %171, i32 0, i32 1
  store ptr %170, ptr %172, align 8, !tbaa !58
  %173 = load ptr, ptr %8, align 8, !tbaa !4
  %174 = getelementptr inbounds nuw %struct.AVFilterContext, ptr %173, i32 0, i32 3
  %175 = load ptr, ptr %174, align 8, !tbaa !45
  %176 = load i32, ptr %9, align 4, !tbaa !19
  %177 = zext i32 %176 to i64
  %178 = getelementptr inbounds nuw %struct.AVFilterPad, ptr %175, i64 %177
  %179 = load ptr, ptr %11, align 8, !tbaa !26
  %180 = getelementptr inbounds nuw %struct.AVFilterLink, ptr %179, i32 0, i32 3
  store ptr %178, ptr %180, align 8, !tbaa !59
  %181 = load ptr, ptr %6, align 8, !tbaa !4
  %182 = getelementptr inbounds nuw %struct.AVFilterContext, ptr %181, i32 0, i32 6
  %183 = load ptr, ptr %182, align 8, !tbaa !43
  %184 = load i32, ptr %7, align 4, !tbaa !19
  %185 = zext i32 %184 to i64
  %186 = getelementptr inbounds nuw %struct.AVFilterPad, ptr %183, i64 %185
  %187 = getelementptr inbounds nuw %struct.AVFilterPad, ptr %186, i32 0, i32 1
  %188 = load i32, ptr %187, align 8, !tbaa !44
  %189 = load ptr, ptr %11, align 8, !tbaa !26
  %190 = getelementptr inbounds nuw %struct.AVFilterLink, ptr %189, i32 0, i32 4
  store i32 %188, ptr %190, align 8, !tbaa !60
  %191 = load ptr, ptr %6, align 8, !tbaa !4
  %192 = getelementptr inbounds nuw %struct.AVFilterContext, ptr %191, i32 0, i32 10
  %193 = load ptr, ptr %192, align 8, !tbaa !28
  %194 = load ptr, ptr %10, align 8, !tbaa !47
  %195 = getelementptr inbounds nuw %struct.FilterLinkInternal, ptr %194, i32 0, i32 0
  %196 = getelementptr inbounds nuw %struct.FilterLink, ptr %195, i32 0, i32 1
  store ptr %193, ptr %196, align 8, !tbaa !61
  br label %197

197:                                              ; preds = %142
  br label %198

198:                                              ; preds = %197
  br label %199

199:                                              ; preds = %198
  %200 = load ptr, ptr %11, align 8, !tbaa !26
  %201 = getelementptr inbounds nuw %struct.AVFilterLink, ptr %200, i32 0, i32 5
  store i32 -1, ptr %201, align 4, !tbaa !70
  %202 = load ptr, ptr %11, align 8, !tbaa !26
  %203 = getelementptr inbounds nuw %struct.AVFilterLink, ptr %202, i32 0, i32 9
  store i32 2, ptr %203, align 8, !tbaa !71
  %204 = load ptr, ptr %10, align 8, !tbaa !47
  %205 = getelementptr inbounds nuw %struct.FilterLinkInternal, ptr %204, i32 0, i32 2
  %206 = load ptr, ptr %6, align 8, !tbaa !4
  %207 = getelementptr inbounds nuw %struct.AVFilterContext, ptr %206, i32 0, i32 10
  %208 = load ptr, ptr %207, align 8, !tbaa !28
  %209 = call ptr @fffiltergraph(ptr noundef %208)
  %210 = getelementptr inbounds nuw %struct.FFFilterGraph, ptr %209, i32 0, i32 6
  call void @ff_framequeue_init(ptr noundef %205, ptr noundef %210)
  store i32 0, ptr %5, align 4
  store i32 1, ptr %12, align 4
  br label %211

211:                                              ; preds = %199, %141, %107, %87, %72
  call void @llvm.lifetime.end.p0(i64 8, ptr %11) #11
  call void @llvm.lifetime.end.p0(i64 8, ptr %10) #11
  %212 = load i32, ptr %5, align 4
  ret i32 %212
}