; Function Attrs: nounwind uwtable
define range(i32 -22, 1) i32 @avfilter_link(ptr noundef %0, i32 noundef %1, ptr noundef %2, i32 noundef %3) local_unnamed_addr #0 {
  %5 = getelementptr inbounds nuw i8, ptr %0, i64 80
  %6 = load ptr, ptr %5, align 8, !tbaa !19
  %.not = icmp eq ptr %6, null
  br i1 %.not, label %7, label %8

7:                                                ; preds = %4
  tail call void (ptr, i32, ptr, ...) @av_log(ptr noundef null, i32 noundef 0, ptr noundef nonnull @.str, ptr noundef nonnull @.str.1, ptr noundef nonnull @.str.2, i32 noundef 155) #15
  tail call void @abort() #16
  unreachable

8:                                                ; preds = %4
  %9 = getelementptr inbounds nuw i8, ptr %2, i64 80
  %10 = load ptr, ptr %9, align 8, !tbaa !19
  %.not60 = icmp eq ptr %10, null
  br i1 %.not60, label %11, label %12

11:                                               ; preds = %8
  tail call void (ptr, i32, ptr, ...) @av_log(ptr noundef null, i32 noundef 0, ptr noundef nonnull @.str, ptr noundef nonnull @.str.3, ptr noundef nonnull @.str.2, i32 noundef 156) #15
  tail call void @abort() #16
  unreachable

12:                                               ; preds = %8
  %13 = icmp eq ptr %6, %10
  br i1 %13, label %15, label %14

14:                                               ; preds = %12
  tail call void (ptr, i32, ptr, ...) @av_log(ptr noundef null, i32 noundef 0, ptr noundef nonnull @.str, ptr noundef nonnull @.str.4, ptr noundef nonnull @.str.2, i32 noundef 157) #15
  tail call void @abort() #16
  unreachable

15:                                               ; preds = %12
  %16 = getelementptr inbounds nuw i8, ptr %0, i64 64
  %17 = load i32, ptr %16, align 8, !tbaa !27
  %.not61 = icmp ugt i32 %17, %1
  br i1 %.not61, label %18, label %86

18:                                               ; preds = %15
  %19 = getelementptr inbounds nuw i8, ptr %2, i64 40
  %20 = load i32, ptr %19, align 8, !tbaa !28
  %.not62 = icmp ugt i32 %20, %3
  br i1 %.not62, label %21, label %86

21:                                               ; preds = %18
  %22 = getelementptr inbounds nuw i8, ptr %0, i64 56
  %23 = load ptr, ptr %22, align 8, !tbaa !29
  %24 = zext i32 %1 to i64
  %25 = getelementptr inbounds nuw ptr, ptr %23, i64 %24
  %26 = load ptr, ptr %25, align 8, !tbaa !17
  %.not63 = icmp eq ptr %26, null
  br i1 %.not63, label %27, label %86

27:                                               ; preds = %21
  %28 = getelementptr inbounds nuw i8, ptr %2, i64 32
  %29 = load ptr, ptr %28, align 8, !tbaa !30
  %30 = zext i32 %3 to i64
  %31 = getelementptr inbounds nuw ptr, ptr %29, i64 %30
  %32 = load ptr, ptr %31, align 8, !tbaa !17
  %.not64 = icmp eq ptr %32, null
  br i1 %.not64, label %33, label %86

33:                                               ; preds = %27
  %34 = getelementptr inbounds nuw i8, ptr %0, i64 160
  %35 = load i32, ptr %34, align 8, !tbaa !31
  %36 = and i32 %35, 1
  %.not65 = icmp eq i32 %36, 0
  br i1 %.not65, label %41, label %37

37:                                               ; preds = %33
  %38 = getelementptr inbounds nuw i8, ptr %2, i64 160
  %39 = load i32, ptr %38, align 8, !tbaa !31
  %40 = and i32 %39, 1
  %.not66 = icmp eq i32 %40, 0
  br i1 %.not66, label %41, label %42

41:                                               ; preds = %37, %33
  tail call void (ptr, i32, ptr, ...) @av_log(ptr noundef nonnull %0, i32 noundef 16, ptr noundef nonnull @.str.5) #15
  br label %86

42:                                               ; preds = %37
  %43 = getelementptr inbounds nuw i8, ptr %0, i64 48
  %44 = load ptr, ptr %43, align 8, !tbaa !34
  %45 = getelementptr inbounds nuw %struct.AVFilterPad, ptr %44, i64 %24, i32 1
  %46 = load i32, ptr %45, align 8, !tbaa !35
  %47 = getelementptr inbounds nuw i8, ptr %2, i64 24
  %48 = load ptr, ptr %47, align 8, !tbaa !36
  %49 = getelementptr inbounds nuw %struct.AVFilterPad, ptr %48, i64 %30, i32 1
  %50 = load i32, ptr %49, align 8, !tbaa !35
  %.not67 = icmp eq i32 %46, %50
  br i1 %.not67, label %63, label %51

51:                                               ; preds = %42
  %52 = getelementptr inbounds nuw i8, ptr %0, i64 16
  %53 = load ptr, ptr %52, align 8, !tbaa !37
  %54 = tail call ptr @av_get_media_type_string(i32 noundef %46) #15
  %.not.i = icmp eq ptr %54, null
  %55 = select i1 %.not.i, ptr @.str.7, ptr %54
  %56 = getelementptr inbounds nuw i8, ptr %2, i64 16
  %57 = load ptr, ptr %56, align 8, !tbaa !37
  %58 = load ptr, ptr %47, align 8, !tbaa !36
  %59 = getelementptr inbounds nuw %struct.AVFilterPad, ptr %58, i64 %30, i32 1
  %60 = load i32, ptr %59, align 8, !tbaa !35
  %61 = tail call ptr @av_get_media_type_string(i32 noundef %60) #15
  %.not.i69 = icmp eq ptr %61, null
  %62 = select i1 %.not.i69, ptr @.str.7, ptr %61
  tail call void (ptr, i32, ptr, ...) @av_log(ptr noundef nonnull %0, i32 noundef 16, ptr noundef nonnull @.str.6, ptr noundef %53, i32 noundef %1, ptr noundef nonnull %55, ptr noundef %57, i32 noundef %3, ptr noundef nonnull %62) #15
  br label %86

63:                                               ; preds = %42
  %64 = tail call noalias ptr @av_mallocz(i64 noundef 400) #15
  %.not68 = icmp eq ptr %64, null
  br i1 %.not68, label %86, label %65

65:                                               ; preds = %63
  %66 = load ptr, ptr %28, align 8, !tbaa !30
  %67 = getelementptr inbounds nuw ptr, ptr %66, i64 %30
  store ptr %64, ptr %67, align 8, !tbaa !17
  %68 = load ptr, ptr %22, align 8, !tbaa !29
  %69 = getelementptr inbounds nuw ptr, ptr %68, i64 %24
  store ptr %64, ptr %69, align 8, !tbaa !17
  store ptr %0, ptr %64, align 8, !tbaa !38
  %70 = getelementptr inbounds nuw i8, ptr %64, i64 16
  store ptr %2, ptr %70, align 8, !tbaa !47
  %71 = load ptr, ptr %43, align 8, !tbaa !34
  %72 = getelementptr inbounds nuw %struct.AVFilterPad, ptr %71, i64 %24
  %73 = getelementptr inbounds nuw i8, ptr %64, i64 8
  store ptr %72, ptr %73, align 8, !tbaa !48
  %74 = load ptr, ptr %47, align 8, !tbaa !36
  %75 = getelementptr inbounds nuw %struct.AVFilterPad, ptr %74, i64 %30
  %76 = getelementptr inbounds nuw i8, ptr %64, i64 24
  store ptr %75, ptr %76, align 8, !tbaa !49
  %77 = getelementptr inbounds nuw %struct.AVFilterPad, ptr %71, i64 %24, i32 1
  %78 = load i32, ptr %77, align 8, !tbaa !35
  %79 = getelementptr inbounds nuw i8, ptr %64, i64 32
  store i32 %78, ptr %79, align 8, !tbaa !50
  %80 = load ptr, ptr %5, align 8, !tbaa !19
  %81 = getelementptr inbounds nuw i8, ptr %64, i64 200
  store ptr %80, ptr %81, align 8, !tbaa !51
  %82 = getelementptr inbounds nuw i8, ptr %64, i64 36
  store i32 -1, ptr %82, align 4, !tbaa !60
  %83 = getelementptr inbounds nuw i8, ptr %64, i64 56
  store i32 2, ptr %83, align 8, !tbaa !61
  %84 = getelementptr inbounds nuw i8, ptr %64, i64 288
  %85 = getelementptr inbounds nuw i8, ptr %80, i64 96
  tail call void @ff_framequeue_init(ptr noundef nonnull %84, ptr noundef nonnull %85) #15
  br label %86

86:                                               ; preds = %63, %15, %18, %21, %27, %65, %51, %41
  %.0 = phi i32 [ -22, %51 ], [ 0, %65 ], [ -22, %41 ], [ -22, %27 ], [ -22, %21 ], [ -22, %18 ], [ -22, %15 ], [ -12, %63 ]
  ret i32 %.0
}